; Function Attrs: mustprogress uwtable
define dso_local noundef i64 @_ZN10cmDebugger26cmDebuggerPipeClient_POSIX4readEPvm(ptr noundef nonnull align 8 dereferenceable(68) %0, ptr nocapture noundef %1, i64 noundef %2) unnamed_addr #0 align 2 {
  %4 = load ptr, ptr %0, align 8
  %5 = getelementptr inbounds i8, ptr %4, i64 16
  %6 = load ptr, ptr %5, align 8
  %7 = tail call noundef zeroext i1 %6(ptr noundef nonnull align 8 dereferenceable(68) %0)
  br i1 %7, label %8, label %18

8:                                                ; preds = %3
  %9 = getelementptr inbounds i8, ptr %0, i64 64
  %10 = load i32, ptr %9, align 8
  %11 = tail call i64 @read(i32 noundef %10, ptr noundef %1, i64 noundef %2)
  %12 = and i64 %11, 4294967295
  %13 = icmp eq i64 %12, 0
  br i1 %13, label %14, label %18

14:                                               ; preds = %8
  %15 = load ptr, ptr %0, align 8
  %16 = getelementptr inbounds i8, ptr %15, i64 24
  %17 = load ptr, ptr %16, align 8
  tail call void %17(ptr noundef nonnull align 8 dereferenceable(68) %0)
  br label %18

18:                                               ; preds = %8, %14, %3
  %.0 = phi i64 [ 0, %14 ], [ %11, %8 ], [ 0, %3 ]
  %sext = shl i64 %.0, 32
  %19 = ashr exact i64 %sext, 32
  ret i64 %19
}